; Function Attrs: cold nounwind optsize uwtable
define void @ff_vc1_init_common(ptr noundef initializes((496, 504), (4148, 4152), (6548, 6549), (6948, 6949)) %0) local_unnamed_addr #0 {
  %2 = getelementptr inbounds nuw i8, ptr %0, i64 6548
  store i8 -1, ptr %2, align 4, !tbaa !96
  %3 = getelementptr inbounds nuw i8, ptr %0, i64 6948
  store i8 0, ptr %3, align 4, !tbaa !97
  %4 = getelementptr inbounds nuw i8, ptr %0, i64 472
  %5 = load ptr, ptr %4, align 8, !tbaa !86
  %6 = getelementptr inbounds nuw i8, ptr %5, i64 160
  store i32 1, ptr %6, align 8, !tbaa !98
  %7 = getelementptr inbounds nuw i8, ptr %0, i64 496
  store i32 2, ptr %7, align 8, !tbaa !99
  %8 = getelementptr inbounds nuw i8, ptr %0, i64 500
  store i32 1, ptr %8, align 4, !tbaa !100
  %9 = getelementptr inbounds nuw i8, ptr %0, i64 4148
  store i32 6, ptr %9, align 4, !tbaa !101
  %10 = getelementptr inbounds nuw i8, ptr %0, i64 5624
  tail call void @ff_vc1dsp_init(ptr noundef nonnull %10) #13
  %11 = getelementptr inbounds nuw i8, ptr %0, i64 2128
  tail call void @ff_qpeldsp_init(ptr noundef nonnull %11) #13
  %12 = tail call i32 @pthread_once(ptr noundef nonnull @ff_vc1_init_common.init_static_once, ptr noundef nonnull @vc1_init_static) #13
  ret void
}